target datalayout = "e-m:e-p270:32:32-p271:32:32-p272:64:64-i64:64-i128:128-f80:128-n8:16:32:64-S128"
target triple = "x86_64-pc-linux-gnu"

%class.Node_List = type <{ %class.Node_Array, i32, [4 x i8] }>
%class.Node_Array = type { ptr, i32, ptr }
%class.PhaseIdealLoop = type <{ %class.PhaseTransform, %class.Node_List, ptr, ptr, ptr, i32, [4 x i8], ptr, i8, [7 x i8], %class.Node_List, %class.Node_List, %class.GrowableArray, i32, i32, ptr, ptr, ptr, i32, i8, [3 x i8], i32, i8, [3 x i8] }>
%class.PhaseTransform = type { ptr, %class.Phase }
%class.Phase = type { i32, ptr }
%class.GrowableArray = type { %class.GrowableArrayWithAllocator, %class.GrowableArrayMetadata }
%class.GrowableArrayWithAllocator = type { %class.GrowableArrayView }
%class.GrowableArrayView = type { %class.GrowableArrayBase, ptr }
%class.GrowableArrayBase = type { i32, i32 }
%class.GrowableArrayMetadata = type { i64 }
%class.LoopTreeIterator = type { ptr, ptr }

; Function Attrs: mustprogress nounwind uwtable
define linkonce_odr hidden noundef ptr @_ZN16LoopTreeIterator7currentEv(ptr noundef nonnull align 8 dereferenceable(16) %0) #1 comdat align 2 {
  %2 = alloca ptr, align 8
  store ptr %0, ptr %2, align 8
  %3 = load ptr, ptr %2, align 8
  %4 = getelementptr inbounds %class.LoopTreeIterator, ptr %3, i32 0, i32 1
  %5 = load ptr, ptr %4, align 8
  ret ptr %5
}

; Function Attrs: mustprogress nounwind uwtable
define linkonce_odr hidden noundef zeroext i1 @_ZN16LoopTreeIterator4doneEv(ptr noundef nonnull align 8 dereferenceable(16) %0) #1 comdat align 2 {
  %2 = alloca ptr, align 8
  store ptr %0, ptr %2, align 8
  %3 = load ptr, ptr %2, align 8
  %4 = getelementptr inbounds %class.LoopTreeIterator, ptr %3, i32 0, i32 1
  %5 = load ptr, ptr %4, align 8
  %6 = icmp eq ptr %5, null
  ret i1 %6
}

; Function Attrs: mustprogress nounwind uwtable
define linkonce_odr hidden void @_ZN16LoopTreeIteratorC2EP13IdealLoopTree(ptr noundef nonnull align 8 dereferenceable(16) %0, ptr noundef %1) unnamed_addr #1 comdat align 2 {
  %3 = alloca ptr, align 8
  %4 = alloca ptr, align 8
  store ptr %0, ptr %3, align 8
  store ptr %1, ptr %4, align 8
  %5 = load ptr, ptr %3, align 8
  %6 = getelementptr inbounds %class.LoopTreeIterator, ptr %5, i32 0, i32 0
  %7 = load ptr, ptr %4, align 8
  store ptr %7, ptr %6, align 8
  %8 = getelementptr inbounds %class.LoopTreeIterator, ptr %5, i32 0, i32 1
  %9 = load ptr, ptr %4, align 8
  store ptr %9, ptr %8, align 8
  ret void
}

; Function Attrs: mustprogress nounwind uwtable
define hidden noundef zeroext i1 @_ZN14PhaseIdealLoop18do_intrinsify_fillEv(ptr noundef nonnull align 8 dereferenceable(237) %0) #1 align 2 {
  %2 = alloca ptr, align 8
  %3 = alloca i8, align 1
  %4 = alloca %class.LoopTreeIterator, align 8
  %5 = alloca ptr, align 8
  store ptr %0, ptr %2, align 8
  %6 = load ptr, ptr %2, align 8
  store i8 0, ptr %3, align 1
  %7 = getelementptr inbounds %class.PhaseIdealLoop, ptr %6, i32 0, i32 3
  %8 = load ptr, ptr %7, align 8
  call void @_ZN16LoopTreeIteratorC2EP13IdealLoopTree(ptr noundef nonnull align 8 dereferenceable(16) %4, ptr noundef %8)
  br label %9

9:                                                ; preds = %23, %1
  %10 = call noundef zeroext i1 @_ZN16LoopTreeIterator4doneEv(ptr noundef nonnull align 8 dereferenceable(16) %4)
  %11 = xor i1 %10, true
  br i1 %11, label %12, label %24

12:                                               ; preds = %9
  %13 = call noundef ptr @_ZN16LoopTreeIterator7currentEv(ptr noundef nonnull align 8 dereferenceable(16) %4)
  store ptr %13, ptr %5, align 8
  %14 = load ptr, ptr %5, align 8
  %15 = call noundef zeroext i1 @_ZN14PhaseIdealLoop15intrinsify_fillEP13IdealLoopTree(ptr noundef nonnull align 8 dereferenceable(237) %6, ptr noundef %14)
  %16 = zext i1 %15 to i32
  %17 = load i8, ptr %3, align 1
  %18 = trunc i8 %17 to i1
  %19 = zext i1 %18 to i32
  %20 = or i32 %19, %16
  %21 = icmp ne i32 %20, 0
  %22 = zext i1 %21 to i8
  store i8 %22, ptr %3, align 1
  br label %23

23:                                               ; preds = %12
  call void @_ZN16LoopTreeIterator4nextEv(ptr noundef nonnull align 8 dereferenceable(16) %4)
  br label %9, !llvm.loop !52

24:                                               ; preds = %9
  %25 = load i8, ptr %3, align 1
  %26 = trunc i8 %25 to i1
  ret i1 %26
}