; Function Attrs: mustprogress nounwind uwtable
define hidden noundef zeroext i1 @_ZN14PhaseIdealLoop18do_intrinsify_fillEv(ptr noundef nonnull align 8 dereferenceable(237) %0) local_unnamed_addr #0 align 2 {
  %2 = alloca %class.LoopTreeIterator, align 8
  %3 = getelementptr inbounds i8, ptr %0, i64 64
  %4 = load ptr, ptr %3, align 8
  store ptr %4, ptr %2, align 8
  %5 = getelementptr inbounds i8, ptr %2, i64 8
  store ptr %4, ptr %5, align 8
  %6 = icmp eq ptr %4, null
  br i1 %6, label %._crit_edge, label %.lr.ph

.lr.ph:                                           ; preds = %1, %.lr.ph
  %.03 = phi i1 [ %9, %.lr.ph ], [ false, %1 ]
  %7 = phi ptr [ %.pr, %.lr.ph ], [ %4, %1 ]
  %8 = call noundef zeroext i1 @_ZN14PhaseIdealLoop15intrinsify_fillEP13IdealLoopTree(ptr noundef nonnull align 8 dereferenceable(237) %0, ptr noundef nonnull %7)
  %9 = or i1 %.03, %8
  call void @_ZN16LoopTreeIterator4nextEv(ptr noundef nonnull align 8 dereferenceable(16) %2) #11
  %.pr = load ptr, ptr %5, align 8
  %10 = icmp eq ptr %.pr, null
  br i1 %10, label %._crit_edge, label %.lr.ph, !llvm.loop !58

._crit_edge:                                      ; preds = %.lr.ph, %1
  %.0.lcssa = phi i1 [ false, %1 ], [ %9, %.lr.ph ]
  ret i1 %.0.lcssa
}